; Function Attrs: mustprogress nounwind uwtable
define dso_local void @_ZN4llvm16SelectionDAGISel29Select_CONVERGENCECTRL_ANCHOREPNS_6SDNodeE(ptr noundef nonnull readonly align 8 captures(none) dereferenceable(272) %0, ptr noundef %1) local_unnamed_addr #0 align 2 {
  %3 = getelementptr inbounds nuw i8, ptr %0, i64 64
  %4 = load ptr, ptr %3, align 8
  %5 = getelementptr inbounds nuw i8, ptr %1, i64 48
  %6 = load ptr, ptr %5, align 8
  %.sroa.0.0.copyload.i = load i16, ptr %6, align 8
  %.sroa.21.0..sroa_idx.i = getelementptr inbounds nuw i8, ptr %6, i64 8
  %.sroa.21.0.copyload.i = load ptr, ptr %.sroa.21.0..sroa_idx.i, align 8
  %7 = tail call noundef ptr @_ZN4llvm12SelectionDAG12SelectNodeToEPNS_6SDNodeEjNS_3EVTE(ptr noundef nonnull align 8 dereferenceable(904) %4, ptr noundef nonnull %1, i32 noundef 46, i16 %.sroa.0.0.copyload.i, ptr %.sroa.21.0.copyload.i) #29
  ret void
}